; ModuleID = '44/448.c'
source_filename = "44/448.c"
target datalayout = "e-m:e-p270:32:32-p271:32:32-p272:64:64-i64:64-f80:128-n8:16:32:64-S128"
target triple = "x86_64-pc-linux-gnu"

@.str = private unnamed_addr constant [3 x i8] c"%s\00", align 1
@.str.1 = private unnamed_addr constant [2 x i8] c"0\00", align 1
@.str.2 = private unnamed_addr constant [2 x i8] c"-\00", align 1
@.str.3 = private unnamed_addr constant [3 x i8] c"%c\00", align 1
@.str.4 = private unnamed_addr constant [2 x i8] c"\0A\00", align 1

; Function Attrs: noinline nounwind uwtable
define dso_local i32 @main() #0 {
  %1 = alloca i32, align 4
  %2 = alloca [6 x [1000 x i8]], align 16
  %3 = alloca i32, align 4
  %4 = alloca i32, align 4
  %5 = alloca i32, align 4
  %6 = alloca i32, align 4
  %7 = alloca i32, align 4
  store i32 0, i32* %1, align 4
  store i32 0, i32* %3, align 4
  br label %8

8:                                                ; preds = %17, %0
  %9 = load i32, i32* %3, align 4
  %10 = icmp slt i32 %9, 6
  br i1 %10, label %11, label %20

11:                                               ; preds = %8
  %12 = load i32, i32* %3, align 4
  %13 = sext i32 %12 to i64
  %14 = getelementptr inbounds [6 x [1000 x i8]], [6 x [1000 x i8]]* %2, i64 0, i64 %13
  %15 = getelementptr inbounds [1000 x i8], [1000 x i8]* %14, i64 0, i64 0
  %16 = call i32 (i8*, ...) @__isoc99_scanf(i8* getelementptr inbounds ([3 x i8], [3 x i8]* @.str, i64 0, i64 0), i8* %15)
  br label %17

17:                                               ; preds = %11
  %18 = load i32, i32* %3, align 4
  %19 = add nsw i32 %18, 1
  store i32 %19, i32* %3, align 4
  br label %8

20:                                               ; preds = %8
  store i32 0, i32* %4, align 4
  br label %21

21:                                               ; preds = %138, %20
  %22 = load i32, i32* %4, align 4
  %23 = icmp slt i32 %22, 6
  br i1 %23, label %24, label %141

24:                                               ; preds = %21
  %25 = load i32, i32* %4, align 4
  %26 = sext i32 %25 to i64
  %27 = getelementptr inbounds [6 x [1000 x i8]], [6 x [1000 x i8]]* %2, i64 0, i64 %26
  %28 = getelementptr inbounds [1000 x i8], [1000 x i8]* %27, i64 0, i64 0
  %29 = call i64 @strlen(i8* %28) #3
  %30 = trunc i64 %29 to i32
  store i32 %30, i32* %5, align 4
  %31 = load i32, i32* %4, align 4
  %32 = sext i32 %31 to i64
  %33 = getelementptr inbounds [6 x [1000 x i8]], [6 x [1000 x i8]]* %2, i64 0, i64 %32
  %34 = getelementptr inbounds [1000 x i8], [1000 x i8]* %33, i64 0, i64 0
  %35 = load i8, i8* %34, align 8
  %36 = sext i8 %35 to i32
  %37 = icmp eq i32 %36, 48
  br i1 %37, label %54, label %38

38:                                               ; preds = %24
  %39 = load i32, i32* %4, align 4
  %40 = sext i32 %39 to i64
  %41 = getelementptr inbounds [6 x [1000 x i8]], [6 x [1000 x i8]]* %2, i64 0, i64 %40
  %42 = getelementptr inbounds [1000 x i8], [1000 x i8]* %41, i64 0, i64 0
  %43 = load i8, i8* %42, align 8
  %44 = sext i8 %43 to i32
  %45 = icmp eq i32 %44, 45
  br i1 %45, label %46, label %56

46:                                               ; preds = %38
  %47 = load i32, i32* %4, align 4
  %48 = sext i32 %47 to i64
  %49 = getelementptr inbounds [6 x [1000 x i8]], [6 x [1000 x i8]]* %2, i64 0, i64 %48
  %50 = getelementptr inbounds [1000 x i8], [1000 x i8]* %49, i64 0, i64 1
  %51 = load i8, i8* %50, align 1
  %52 = sext i8 %51 to i32
  %53 = icmp eq i32 %52, 48
  br i1 %53, label %54, label %56

54:                                               ; preds = %46, %24
  %55 = call i32 (i8*, ...) @printf(i8* getelementptr inbounds ([2 x i8], [2 x i8]* @.str.1, i64 0, i64 0))
  br label %136

56:                                               ; preds = %46, %38
  %57 = load i32, i32* %4, align 4
  %58 = sext i32 %57 to i64
  %59 = getelementptr inbounds [6 x [1000 x i8]], [6 x [1000 x i8]]* %2, i64 0, i64 %58
  %60 = getelementptr inbounds [1000 x i8], [1000 x i8]* %59, i64 0, i64 0
  %61 = load i8, i8* %60, align 8
  %62 = sext i8 %61 to i32
  %63 = icmp eq i32 %62, 45
  br i1 %63, label %64, label %100

64:                                               ; preds = %56
  %65 = call i32 (i8*, ...) @printf(i8* getelementptr inbounds ([2 x i8], [2 x i8]* @.str.2, i64 0, i64 0))
  br label %66

66:                                               ; preds = %77, %64
  %67 = load i32, i32* %4, align 4
  %68 = sext i32 %67 to i64
  %69 = getelementptr inbounds [6 x [1000 x i8]], [6 x [1000 x i8]]* %2, i64 0, i64 %68
  %70 = load i32, i32* %5, align 4
  %71 = sub nsw i32 %70, 1
  %72 = sext i32 %71 to i64
  %73 = getelementptr inbounds [1000 x i8], [1000 x i8]* %69, i64 0, i64 %72
  %74 = load i8, i8* %73, align 1
  %75 = sext i8 %74 to i32
  %76 = icmp eq i32 %75, 48
  br i1 %76, label %77, label %80

77:                                               ; preds = %66
  %78 = load i32, i32* %5, align 4
  %79 = sub nsw i32 %78, 1
  store i32 %79, i32* %5, align 4
  br label %66

80:                                               ; preds = %66
  %81 = load i32, i32* %5, align 4
  %82 = sub nsw i32 %81, 1
  store i32 %82, i32* %6, align 4
  br label %83

83:                                               ; preds = %96, %80
  %84 = load i32, i32* %6, align 4
  %85 = icmp sge i32 %84, 1
  br i1 %85, label %86, label %99

86:                                               ; preds = %83
  %87 = load i32, i32* %4, align 4
  %88 = sext i32 %87 to i64
  %89 = getelementptr inbounds [6 x [1000 x i8]], [6 x [1000 x i8]]* %2, i64 0, i64 %88
  %90 = load i32, i32* %6, align 4
  %91 = sext i32 %90 to i64
  %92 = getelementptr inbounds [1000 x i8], [1000 x i8]* %89, i64 0, i64 %91
  %93 = load i8, i8* %92, align 1
  %94 = sext i8 %93 to i32
  %95 = call i32 (i8*, ...) @printf(i8* getelementptr inbounds ([3 x i8], [3 x i8]* @.str.3, i64 0, i64 0), i32 %94)
  br label %96

96:                                               ; preds = %86
  %97 = load i32, i32* %6, align 4
  %98 = add nsw i32 %97, -1
  store i32 %98, i32* %6, align 4
  br label %83

99:                                               ; preds = %83
  br label %135

100:                                              ; preds = %56
  br label %101

101:                                              ; preds = %112, %100
  %102 = load i32, i32* %4, align 4
  %103 = sext i32 %102 to i64
  %104 = getelementptr inbounds [6 x [1000 x i8]], [6 x [1000 x i8]]* %2, i64 0, i64 %103
  %105 = load i32, i32* %5, align 4
  %106 = sub nsw i32 %105, 1
  %107 = sext i32 %106 to i64
  %108 = getelementptr inbounds [1000 x i8], [1000 x i8]* %104, i64 0, i64 %107
  %109 = load i8, i8* %108, align 1
  %110 = sext i8 %109 to i32
  %111 = icmp eq i32 %110, 48
  br i1 %111, label %112, label %115

112:                                              ; preds = %101
  %113 = load i32, i32* %5, align 4
  %114 = sub nsw i32 %113, 1
  store i32 %114, i32* %5, align 4
  br label %101

115:                                              ; preds = %101
  %116 = load i32, i32* %5, align 4
  %117 = sub nsw i32 %116, 1
  store i32 %117, i32* %7, align 4
  br label %118

118:                                              ; preds = %131, %115
  %119 = load i32, i32* %7, align 4
  %120 = icmp sge i32 %119, 0
  br i1 %120, label %121, label %134

121:                                              ; preds = %118
  %122 = load i32, i32* %4, align 4
  %123 = sext i32 %122 to i64
  %124 = getelementptr inbounds [6 x [1000 x i8]], [6 x [1000 x i8]]* %2, i64 0, i64 %123
  %125 = load i32, i32* %7, align 4
  %126 = sext i32 %125 to i64
  %127 = getelementptr inbounds [1000 x i8], [1000 x i8]* %124, i64 0, i64 %126
  %128 = load i8, i8* %127, align 1
  %129 = sext i8 %128 to i32
  %130 = call i32 (i8*, ...) @printf(i8* getelementptr inbounds ([3 x i8], [3 x i8]* @.str.3, i64 0, i64 0), i32 %129)
  br label %131

131:                                              ; preds = %121
  %132 = load i32, i32* %7, align 4
  %133 = add nsw i32 %132, -1
  store i32 %133, i32* %7, align 4
  br label %118

134:                                              ; preds = %118
  br label %135

135:                                              ; preds = %134, %99
  br label %136

136:                                              ; preds = %135, %54
  %137 = call i32 (i8*, ...) @printf(i8* getelementptr inbounds ([2 x i8], [2 x i8]* @.str.4, i64 0, i64 0))
  br label %138

138:                                              ; preds = %136
  %139 = load i32, i32* %4, align 4
  %140 = add nsw i32 %139, 1
  store i32 %140, i32* %4, align 4
  br label %21

141:                                              ; preds = %21
  %142 = call i32 @getchar()
  %143 = call i32 @getchar()
  %144 = call i32 @getchar()
  %145 = call i32 @getchar()
  %146 = call i32 @getchar()
  %147 = call i32 @getchar()
  %148 = call i32 @getchar()
  %149 = call i32 @getchar()
  %150 = call i32 @getchar()
  %151 = load i32, i32* %1, align 4
  ret i32 %151
}

declare dso_local i32 @__isoc99_scanf(i8*, ...) #1

; Function Attrs: nounwind readonly
declare dso_local i64 @strlen(i8*) #2

declare dso_local i32 @printf(i8*, ...) #1

declare dso_local i32 @getchar() #1


!llvm.module.flags = !{!0}
!llvm.ident = !{!1}

!0 = !{i32 1, !"wchar_size", i32 4}
!1 = !{!"clang version 10.0.0-4ubuntu1 "}
